; ModuleID = '61/836.c'
source_filename = "61/836.c"
target datalayout = "e-m:e-p270:32:32-p271:32:32-p272:64:64-i64:64-f80:128-n8:16:32:64-S128"
target triple = "x86_64-pc-linux-gnu"

@.str = private unnamed_addr constant [3 x i8] c"%d\00", align 1
@.str.1 = private unnamed_addr constant [4 x i8] c"%d\0A\00", align 1

; Function Attrs: noinline nounwind uwtable
define dso_local i32 @main() #0 {
  %1 = alloca i32, align 4
  %2 = alloca i32, align 4
  %3 = alloca i32, align 4
  %4 = alloca [1000 x i32], align 16
  %5 = alloca [100 x i32], align 16
  store i32 0, i32* %1, align 4
  %6 = call i32 (i8*, ...) @__isoc99_scanf(i8* getelementptr inbounds ([3 x i8], [3 x i8]* @.str, i64 0, i64 0), i32* %2)
  %7 = getelementptr inbounds [1000 x i32], [1000 x i32]* %4, i64 0, i64 1
  store i32 1, i32* %7, align 4
  %8 = getelementptr inbounds [1000 x i32], [1000 x i32]* %4, i64 0, i64 2
  store i32 1, i32* %8, align 8
  store i32 1, i32* %3, align 4
  br label %9

9:                                                ; preds = %18, %0
  %10 = load i32, i32* %3, align 4
  %11 = load i32, i32* %2, align 4
  %12 = icmp sle i32 %10, %11
  br i1 %12, label %13, label %21

13:                                               ; preds = %9
  %14 = load i32, i32* %3, align 4
  %15 = sext i32 %14 to i64
  %16 = getelementptr inbounds [100 x i32], [100 x i32]* %5, i64 0, i64 %15
  %17 = call i32 (i8*, ...) @__isoc99_scanf(i8* getelementptr inbounds ([3 x i8], [3 x i8]* @.str, i64 0, i64 0), i32* %16)
  br label %18

18:                                               ; preds = %13
  %19 = load i32, i32* %3, align 4
  %20 = add nsw i32 %19, 1
  store i32 %20, i32* %3, align 4
  br label %9

21:                                               ; preds = %9
  store i32 3, i32* %3, align 4
  br label %22

22:                                               ; preds = %40, %21
  %23 = load i32, i32* %3, align 4
  %24 = icmp sle i32 %23, 1000
  br i1 %24, label %25, label %43

25:                                               ; preds = %22
  %26 = load i32, i32* %3, align 4
  %27 = sub nsw i32 %26, 1
  %28 = sext i32 %27 to i64
  %29 = getelementptr inbounds [1000 x i32], [1000 x i32]* %4, i64 0, i64 %28
  %30 = load i32, i32* %29, align 4
  %31 = load i32, i32* %3, align 4
  %32 = sub nsw i32 %31, 2
  %33 = sext i32 %32 to i64
  %34 = getelementptr inbounds [1000 x i32], [1000 x i32]* %4, i64 0, i64 %33
  %35 = load i32, i32* %34, align 4
  %36 = add nsw i32 %30, %35
  %37 = load i32, i32* %3, align 4
  %38 = sext i32 %37 to i64
  %39 = getelementptr inbounds [1000 x i32], [1000 x i32]* %4, i64 0, i64 %38
  store i32 %36, i32* %39, align 4
  br label %40

40:                                               ; preds = %25
  %41 = load i32, i32* %3, align 4
  %42 = add nsw i32 %41, 1
  store i32 %42, i32* %3, align 4
  br label %22

43:                                               ; preds = %22
  store i32 1, i32* %3, align 4
  br label %44

44:                                               ; preds = %57, %43
  %45 = load i32, i32* %3, align 4
  %46 = load i32, i32* %2, align 4
  %47 = icmp sle i32 %45, %46
  br i1 %47, label %48, label %60

48:                                               ; preds = %44
  %49 = load i32, i32* %3, align 4
  %50 = sext i32 %49 to i64
  %51 = getelementptr inbounds [100 x i32], [100 x i32]* %5, i64 0, i64 %50
  %52 = load i32, i32* %51, align 4
  %53 = sext i32 %52 to i64
  %54 = getelementptr inbounds [1000 x i32], [1000 x i32]* %4, i64 0, i64 %53
  %55 = load i32, i32* %54, align 4
  %56 = call i32 (i8*, ...) @printf(i8* getelementptr inbounds ([4 x i8], [4 x i8]* @.str.1, i64 0, i64 0), i32 %55)
  br label %57

57:                                               ; preds = %48
  %58 = load i32, i32* %3, align 4
  %59 = add nsw i32 %58, 1
  store i32 %59, i32* %3, align 4
  br label %44

60:                                               ; preds = %44
  %61 = call i32 @getchar()
  %62 = call i32 @getchar()
  %63 = call i32 @getchar()
  %64 = load i32, i32* %1, align 4
  ret i32 %64
}

declare dso_local i32 @__isoc99_scanf(i8*, ...) #1

declare dso_local i32 @printf(i8*, ...) #1

declare dso_local i32 @getchar() #1


!llvm.module.flags = !{!0}
!llvm.ident = !{!1}

!0 = !{i32 1, !"wchar_size", i32 4}
!1 = !{!"clang version 10.0.0-4ubuntu1 "}
