; ModuleID = 'source-C-CXX/60/836.c'
source_filename = "source-C-CXX/60/836.c"
target datalayout = "e-m:e-p270:32:32-p271:32:32-p272:64:64-i64:64-f80:128-n8:16:32:64-S128"
target triple = "x86_64-pc-linux-gnu"

%struct._IO_FILE = type { i32, i8*, i8*, i8*, i8*, i8*, i8*, i8*, i8*, i8*, i8*, i8*, %struct._IO_marker*, %struct._IO_FILE*, i32, i32, i64, i16, i8, [1 x i8], i8*, i64, %struct._IO_codecvt*, %struct._IO_wide_data*, %struct._IO_FILE*, i8*, i64, i32, [20 x i8] }
%struct._IO_marker = type opaque
%struct._IO_codecvt = type opaque
%struct._IO_wide_data = type opaque

@.str = private unnamed_addr constant [3 x i8] c"%d\00", align 1
@.str.1 = private unnamed_addr constant [4 x i8] c"%d\0A\00", align 1
@stdin = external local_unnamed_addr global %struct._IO_FILE*, align 8

; Function Attrs: nofree nounwind sspstrong uwtable
define dso_local i32 @main() local_unnamed_addr #0 {
  %1 = alloca i32, align 4
  %2 = alloca [1000 x i32], align 16
  %3 = alloca [100 x i32], align 16
  %4 = bitcast i32* %1 to i8*
  call void @llvm.lifetime.start.p0i8(i64 4, i8* nonnull %4) #3
  %5 = bitcast [1000 x i32]* %2 to i8*
  call void @llvm.lifetime.start.p0i8(i64 4000, i8* nonnull %5) #3
  %6 = bitcast [100 x i32]* %3 to i8*
  call void @llvm.lifetime.start.p0i8(i64 400, i8* nonnull %6) #3
  %7 = call i32 (i8*, ...) @__isoc99_scanf(i8* getelementptr inbounds ([3 x i8], [3 x i8]* @.str, i64 0, i64 0), i32* nonnull %1)
  %8 = getelementptr inbounds [1000 x i32], [1000 x i32]* %2, i64 0, i64 1
  store i32 1, i32* %8, align 4, !tbaa !5
  %9 = getelementptr inbounds [1000 x i32], [1000 x i32]* %2, i64 0, i64 2
  store i32 1, i32* %9, align 8, !tbaa !5
  %10 = load i32, i32* %1, align 4, !tbaa !5
  %11 = icmp slt i32 %10, 1
  br i1 %11, label %12, label %15

12:                                               ; preds = %15, %0
  %13 = phi i32 [ %10, %0 ], [ %20, %15 ]
  %14 = getelementptr inbounds [1000 x i32], [1000 x i32]* %2, i64 0, i64 3
  store i32 2, i32* %14, align 4, !tbaa !5
  br label %25

15:                                               ; preds = %0, %15
  %16 = phi i64 [ %19, %15 ], [ 1, %0 ]
  %17 = getelementptr inbounds [100 x i32], [100 x i32]* %3, i64 0, i64 %16
  %18 = call i32 (i8*, ...) @__isoc99_scanf(i8* getelementptr inbounds ([3 x i8], [3 x i8]* @.str, i64 0, i64 0), i32* nonnull %17)
  %19 = add nuw nsw i64 %16, 1
  %20 = load i32, i32* %1, align 4, !tbaa !5
  %21 = sext i32 %20 to i64
  %22 = icmp slt i64 %16, %21
  br i1 %22, label %15, label %12, !llvm.loop !9

23:                                               ; preds = %25
  %24 = icmp slt i32 %13, 1
  br i1 %24, label %48, label %36

25:                                               ; preds = %55, %12
  %26 = phi i64 [ 4, %12 ], [ %71, %55 ]
  %27 = phi i32 [ 2, %12 ], [ %69, %55 ]
  %28 = phi i64 [ 3, %12 ], [ %66, %55 ]
  %29 = add nsw i64 %28, -1
  %30 = getelementptr inbounds [1000 x i32], [1000 x i32]* %2, i64 0, i64 %29
  %31 = load i32, i32* %30, align 8, !tbaa !5
  %32 = add nsw i32 %31, %27
  %33 = getelementptr inbounds [1000 x i32], [1000 x i32]* %2, i64 0, i64 %26
  store i32 %32, i32* %33, align 16, !tbaa !5
  %34 = or i64 %26, 1
  %35 = icmp eq i64 %34, 1001
  br i1 %35, label %23, label %55, !llvm.loop !11

36:                                               ; preds = %23, %36
  %37 = phi i64 [ %44, %36 ], [ 1, %23 ]
  %38 = getelementptr inbounds [100 x i32], [100 x i32]* %3, i64 0, i64 %37
  %39 = load i32, i32* %38, align 4, !tbaa !5
  %40 = sext i32 %39 to i64
  %41 = getelementptr inbounds [1000 x i32], [1000 x i32]* %2, i64 0, i64 %40
  %42 = load i32, i32* %41, align 4, !tbaa !5
  %43 = call i32 (i8*, ...) @printf(i8* nonnull dereferenceable(1) getelementptr inbounds ([4 x i8], [4 x i8]* @.str.1, i64 0, i64 0), i32 %42)
  %44 = add nuw nsw i64 %37, 1
  %45 = load i32, i32* %1, align 4, !tbaa !5
  %46 = sext i32 %45 to i64
  %47 = icmp slt i64 %37, %46
  br i1 %47, label %36, label %48, !llvm.loop !12

48:                                               ; preds = %36, %23
  %49 = load %struct._IO_FILE*, %struct._IO_FILE** @stdin, align 8, !tbaa !13
  %50 = call i32 @getc(%struct._IO_FILE* %49) #3
  %51 = load %struct._IO_FILE*, %struct._IO_FILE** @stdin, align 8, !tbaa !13
  %52 = call i32 @getc(%struct._IO_FILE* %51) #3
  %53 = load %struct._IO_FILE*, %struct._IO_FILE** @stdin, align 8, !tbaa !13
  %54 = call i32 @getc(%struct._IO_FILE* %53) #3
  call void @llvm.lifetime.end.p0i8(i64 400, i8* nonnull %6) #3
  call void @llvm.lifetime.end.p0i8(i64 4000, i8* nonnull %5) #3
  call void @llvm.lifetime.end.p0i8(i64 4, i8* nonnull %4) #3
  ret i32 0

55:                                               ; preds = %25
  %56 = add nsw i64 %26, -1
  %57 = getelementptr inbounds [1000 x i32], [1000 x i32]* %2, i64 0, i64 %56
  %58 = load i32, i32* %57, align 4, !tbaa !5
  %59 = add nsw i32 %58, %32
  %60 = getelementptr inbounds [1000 x i32], [1000 x i32]* %2, i64 0, i64 %34
  store i32 %59, i32* %60, align 4, !tbaa !5
  %61 = or i64 %26, 2
  %62 = getelementptr inbounds [1000 x i32], [1000 x i32]* %2, i64 0, i64 %26
  %63 = load i32, i32* %62, align 16, !tbaa !5
  %64 = add nsw i32 %63, %59
  %65 = getelementptr inbounds [1000 x i32], [1000 x i32]* %2, i64 0, i64 %61
  store i32 %64, i32* %65, align 8, !tbaa !5
  %66 = or i64 %26, 3
  %67 = getelementptr inbounds [1000 x i32], [1000 x i32]* %2, i64 0, i64 %34
  %68 = load i32, i32* %67, align 4, !tbaa !5
  %69 = add nsw i32 %68, %64
  %70 = getelementptr inbounds [1000 x i32], [1000 x i32]* %2, i64 0, i64 %66
  store i32 %69, i32* %70, align 4, !tbaa !5
  %71 = add nuw nsw i64 %26, 4
  br label %25
}

; Function Attrs: argmemonly mustprogress nofree nosync nounwind willreturn
declare void @llvm.lifetime.start.p0i8(i64 immarg, i8* nocapture) #1

; Function Attrs: nofree nounwind
declare noundef i32 @__isoc99_scanf(i8* nocapture noundef readonly, ...) local_unnamed_addr #2

; Function Attrs: nofree nounwind
declare noundef i32 @printf(i8* nocapture noundef readonly, ...) local_unnamed_addr #2

; Function Attrs: argmemonly mustprogress nofree nosync nounwind willreturn
declare void @llvm.lifetime.end.p0i8(i64 immarg, i8* nocapture) #1

; Function Attrs: nofree nounwind
declare noundef i32 @getc(%struct._IO_FILE* nocapture noundef) local_unnamed_addr #2


!llvm.module.flags = !{!0, !1, !2, !3}
!llvm.ident = !{!4}

!0 = !{i32 1, !"wchar_size", i32 4}
!1 = !{i32 7, !"PIC Level", i32 2}
!2 = !{i32 7, !"PIE Level", i32 2}
!3 = !{i32 7, !"uwtable", i32 1}
!4 = !{!"clang version 13.0.0"}
!5 = !{!6, !6, i64 0}
!6 = !{!"int", !7, i64 0}
!7 = !{!"omnipotent char", !8, i64 0}
!8 = !{!"Simple C/C++ TBAA"}
!9 = distinct !{!9, !10}
!10 = !{!"llvm.loop.mustprogress"}
!11 = distinct !{!11, !10}
!12 = distinct !{!12, !10}
!13 = !{!14, !14, i64 0}
!14 = !{!"any pointer", !7, i64 0}
